; ModuleID = 'source-C-CXX/49/469.c'
source_filename = "source-C-CXX/49/469.c"
target datalayout = "e-m:e-p270:32:32-p271:32:32-p272:64:64-i64:64-f80:128-n8:16:32:64-S128"
target triple = "x86_64-pc-linux-gnu"

@.str = private unnamed_addr constant [3 x i8] c"%d\00", align 1
@.str.1 = private unnamed_addr constant [4 x i8] c"%d\0A\00", align 1

; Function Attrs: nofree nounwind sspstrong uwtable
define dso_local i32 @main() local_unnamed_addr #0 {
  %1 = alloca i32, align 4
  %2 = alloca [12 x i32], align 16
  %3 = bitcast i32* %1 to i8*
  call void @llvm.lifetime.start.p0i8(i64 4, i8* nonnull %3) #3
  %4 = call i32 (i8*, ...) @__isoc99_scanf(i8* getelementptr inbounds ([3 x i8], [3 x i8]* @.str, i64 0, i64 0), i32* nonnull %1)
  %5 = bitcast [12 x i32]* %2 to i8*
  call void @llvm.lifetime.start.p0i8(i64 48, i8* nonnull %5) #3
  %6 = getelementptr inbounds [12 x i32], [12 x i32]* %2, i64 0, i64 11
  %7 = getelementptr inbounds [12 x i32], [12 x i32]* %2, i64 0, i64 10
  %8 = getelementptr inbounds [12 x i32], [12 x i32]* %2, i64 0, i64 9
  %9 = getelementptr inbounds [12 x i32], [12 x i32]* %2, i64 0, i64 8
  %10 = getelementptr inbounds [12 x i32], [12 x i32]* %2, i64 0, i64 7
  %11 = getelementptr inbounds [12 x i32], [12 x i32]* %2, i64 0, i64 6
  %12 = getelementptr inbounds [12 x i32], [12 x i32]* %2, i64 0, i64 5
  %13 = getelementptr inbounds [12 x i32], [12 x i32]* %2, i64 0, i64 4
  %14 = getelementptr inbounds [12 x i32], [12 x i32]* %2, i64 0, i64 3
  %15 = getelementptr inbounds [12 x i32], [12 x i32]* %2, i64 0, i64 2
  %16 = getelementptr inbounds [12 x i32], [12 x i32]* %2, i64 0, i64 1
  %17 = getelementptr inbounds [12 x i32], [12 x i32]* %2, i64 0, i64 0
  br label %18

18:                                               ; preds = %0, %43
  %19 = phi i64 [ 0, %0 ], [ %20, %43 ]
  %20 = add nuw nsw i64 %19, 1
  %21 = trunc i64 %19 to i32
  switch i32 %21, label %34 [
    i32 0, label %22
    i32 1, label %23
    i32 2, label %24
    i32 3, label %25
    i32 4, label %26
    i32 5, label %27
    i32 6, label %28
    i32 7, label %29
    i32 8, label %30
    i32 9, label %31
    i32 10, label %32
    i32 11, label %33
  ]

22:                                               ; preds = %18
  store i32 13, i32* %17, align 16, !tbaa !5
  br label %34

23:                                               ; preds = %18
  store i32 44, i32* %16, align 4, !tbaa !5
  br label %34

24:                                               ; preds = %18
  store i32 72, i32* %15, align 8, !tbaa !5
  br label %34

25:                                               ; preds = %18
  store i32 103, i32* %14, align 4, !tbaa !5
  br label %34

26:                                               ; preds = %18
  store i32 133, i32* %13, align 16, !tbaa !5
  br label %34

27:                                               ; preds = %18
  store i32 164, i32* %12, align 4, !tbaa !5
  br label %34

28:                                               ; preds = %18
  store i32 194, i32* %11, align 8, !tbaa !5
  br label %34

29:                                               ; preds = %18
  store i32 225, i32* %10, align 4, !tbaa !5
  br label %34

30:                                               ; preds = %18
  store i32 256, i32* %9, align 16, !tbaa !5
  br label %34

31:                                               ; preds = %18
  store i32 286, i32* %8, align 4, !tbaa !5
  br label %34

32:                                               ; preds = %18
  store i32 317, i32* %7, align 8, !tbaa !5
  br label %34

33:                                               ; preds = %18
  store i32 347, i32* %6, align 4, !tbaa !5
  br label %34

34:                                               ; preds = %18, %33, %32, %31, %30, %29, %28, %27, %26, %25, %24, %23, %22
  %35 = getelementptr inbounds [12 x i32], [12 x i32]* %2, i64 0, i64 %19
  %36 = load i32, i32* %35, align 4, !tbaa !5
  %37 = srem i32 %36, 7
  %38 = load i32, i32* %1, align 4, !tbaa !5
  %39 = add nsw i32 %37, %38
  switch i32 %39, label %43 [
    i32 13, label %40
    i32 6, label %40
  ]

40:                                               ; preds = %34, %34
  %41 = trunc i64 %20 to i32
  %42 = call i32 (i8*, ...) @printf(i8* nonnull dereferenceable(1) getelementptr inbounds ([4 x i8], [4 x i8]* @.str.1, i64 0, i64 0), i32 %41)
  br label %43

43:                                               ; preds = %34, %40
  %44 = icmp eq i64 %20, 12
  br i1 %44, label %45, label %18, !llvm.loop !9

45:                                               ; preds = %43
  call void @llvm.lifetime.end.p0i8(i64 48, i8* nonnull %5) #3
  call void @llvm.lifetime.end.p0i8(i64 4, i8* nonnull %3) #3
  ret i32 0
}

; Function Attrs: argmemonly mustprogress nofree nosync nounwind willreturn
declare void @llvm.lifetime.start.p0i8(i64 immarg, i8* nocapture) #1

; Function Attrs: nofree nounwind
declare noundef i32 @__isoc99_scanf(i8* nocapture noundef readonly, ...) local_unnamed_addr #2

; Function Attrs: nofree nounwind
declare noundef i32 @printf(i8* nocapture noundef readonly, ...) local_unnamed_addr #2

; Function Attrs: argmemonly mustprogress nofree nosync nounwind willreturn
declare void @llvm.lifetime.end.p0i8(i64 immarg, i8* nocapture) #1


!llvm.module.flags = !{!0, !1, !2, !3}
!llvm.ident = !{!4}

!0 = !{i32 1, !"wchar_size", i32 4}
!1 = !{i32 7, !"PIC Level", i32 2}
!2 = !{i32 7, !"PIE Level", i32 2}
!3 = !{i32 7, !"uwtable", i32 1}
!4 = !{!"clang version 13.0.0"}
!5 = !{!6, !6, i64 0}
!6 = !{!"int", !7, i64 0}
!7 = !{!"omnipotent char", !8, i64 0}
!8 = !{!"Simple C/C++ TBAA"}
!9 = distinct !{!9, !10}
!10 = !{!"llvm.loop.mustprogress"}
